target datalayout = "e-m:e-p270:32:32-p271:32:32-p272:64:64-i64:64-i128:128-f80:128-n8:16:32:64-S128"
target triple = "x86_64-pc-linux-gnu"

%struct._proto_node = type { ptr, ptr, ptr, ptr, ptr, ptr, ptr }
%struct.tree_data_t = type { ptr, i8, i8, i32, ptr, i32, i32 }
%struct.field_info = type { ptr, i32, i32, i32, i32, i32, i32, ptr, ptr, ptr, i32, i32 }
%struct.__va_list_tag = type { i32, i32, ptr, ptr }

; Function Attrs: inlinehint nounwind null_pointer_is_valid sspstrong uwtable
define internal zeroext i1 @proto_item_is_hidden(ptr noundef %0) #11 {
  %2 = alloca i1, align 1
  %3 = alloca ptr, align 8
  store ptr %0, ptr %3, align 8
  %4 = load ptr, ptr %3, align 8
  %5 = icmp ne ptr %4, null
  br i1 %5, label %6, label %27

6:                                                ; preds = %1
  %7 = load ptr, ptr %3, align 8
  %8 = getelementptr inbounds nuw %struct._proto_node, ptr %7, i32 0, i32 5
  %9 = load ptr, ptr %8, align 8
  %10 = icmp ne ptr %9, null
  br i1 %10, label %11, label %27

11:                                               ; preds = %6
  %12 = load ptr, ptr %3, align 8
  %13 = getelementptr inbounds nuw %struct._proto_node, ptr %12, i32 0, i32 5
  %14 = load ptr, ptr %13, align 8
  %15 = icmp ne ptr %14, null
  br i1 %15, label %16, label %23

16:                                               ; preds = %11
  %17 = load ptr, ptr %3, align 8
  %18 = getelementptr inbounds nuw %struct._proto_node, ptr %17, i32 0, i32 5
  %19 = load ptr, ptr %18, align 8
  %20 = getelementptr inbounds nuw %struct.field_info, ptr %19, i32 0, i32 6
  %21 = load i32, ptr %20, align 4
  %22 = and i32 %21, 1
  br label %24

23:                                               ; preds = %11
  br label %24

24:                                               ; preds = %23, %16
  %25 = phi i32 [ %22, %16 ], [ 0, %23 ]
  %26 = icmp ne i32 %25, 0
  store i1 %26, ptr %2, align 1
  br label %28

27:                                               ; preds = %6, %1
  store i1 true, ptr %2, align 1
  br label %28

28:                                               ; preds = %27, %24
  %29 = load i1, ptr %2, align 1
  ret i1 %29
}

; Function Attrs: null_pointer_is_valid sspstrong uwtable
define ptr @proto_tree_add_uint_format(ptr noundef %0, i32 noundef %1, ptr noundef %2, i32 noundef %3, i32 noundef %4, i32 noundef %5, ptr noundef %6, ...) #0 {
  %8 = alloca ptr, align 8
  %9 = alloca ptr, align 8
  %10 = alloca i32, align 4
  %11 = alloca ptr, align 8
  %12 = alloca i32, align 4
  %13 = alloca i32, align 4
  %14 = alloca i32, align 4
  %15 = alloca ptr, align 8
  %16 = alloca ptr, align 8
  %17 = alloca [1 x %struct.__va_list_tag], align 16
  %18 = alloca i32, align 4
  store ptr %0, ptr %9, align 8
  store i32 %1, ptr %10, align 4
  store ptr %2, ptr %11, align 8
  store i32 %3, ptr %12, align 4
  store i32 %4, ptr %13, align 4
  store i32 %5, ptr %14, align 4
  store ptr %6, ptr %15, align 8
  call void @llvm.lifetime.start.p0(i64 8, ptr %16) #24
  call void @llvm.lifetime.start.p0(i64 24, ptr %17) #24
  %19 = load ptr, ptr %9, align 8
  %20 = load i32, ptr %10, align 4
  %21 = load ptr, ptr %11, align 8
  %22 = load i32, ptr %12, align 4
  %23 = load i32, ptr %13, align 4
  %24 = load i32, ptr %14, align 4
  %25 = call ptr @proto_tree_add_uint(ptr noundef %19, i32 noundef %20, ptr noundef %21, i32 noundef %22, i32 noundef %23, i32 noundef %24)
  store ptr %25, ptr %16, align 8
  %26 = load ptr, ptr %16, align 8
  %27 = load ptr, ptr %9, align 8
  %28 = icmp ne ptr %26, %27
  br i1 %28, label %29, label %57

29:                                               ; preds = %7
  br label %30

30:                                               ; preds = %29
  br label %31

31:                                               ; preds = %30
  br label %32

32:                                               ; preds = %31
  %33 = load ptr, ptr %16, align 8
  %34 = getelementptr inbounds nuw %struct._proto_node, ptr %33, i32 0, i32 5
  %35 = load ptr, ptr %34, align 8
  %36 = icmp ne ptr %35, null
  br i1 %36, label %39, label %37

37:                                               ; preds = %32
  %38 = load ptr, ptr %16, align 8
  store ptr %38, ptr %8, align 8
  store i32 1, ptr %18, align 4
  br label %59

39:                                               ; preds = %32
  %40 = load ptr, ptr %16, align 8
  %41 = getelementptr inbounds nuw %struct._proto_node, ptr %40, i32 0, i32 6
  %42 = load ptr, ptr %41, align 8
  %43 = getelementptr inbounds nuw %struct.tree_data_t, ptr %42, i32 0, i32 1
  %44 = load i8, ptr %43, align 8, !range !10, !noundef !11
  %45 = trunc i8 %44 to i1
  br i1 %45, label %51, label %46

46:                                               ; preds = %39
  %47 = load ptr, ptr %16, align 8
  %48 = call zeroext i1 @proto_item_is_hidden(ptr noundef %47)
  br i1 %48, label %49, label %51

49:                                               ; preds = %46
  %50 = load ptr, ptr %16, align 8
  store ptr %50, ptr %8, align 8
  store i32 1, ptr %18, align 4
  br label %59

51:                                               ; preds = %46, %39
  %52 = getelementptr inbounds [1 x %struct.__va_list_tag], ptr %17, i64 0, i64 0
  call void @llvm.va_start.p0(ptr %52)
  %53 = load ptr, ptr %16, align 8
  %54 = load ptr, ptr %15, align 8
  %55 = getelementptr inbounds [1 x %struct.__va_list_tag], ptr %17, i64 0, i64 0
  call void @proto_tree_set_representation(ptr noundef %53, ptr noundef %54, ptr noundef %55)
  %56 = getelementptr inbounds [1 x %struct.__va_list_tag], ptr %17, i64 0, i64 0
  call void @llvm.va_end.p0(ptr %56)
  br label %57

57:                                               ; preds = %51, %7
  %58 = load ptr, ptr %16, align 8
  store ptr %58, ptr %8, align 8
  store i32 1, ptr %18, align 4
  br label %59

59:                                               ; preds = %57, %49, %37
  call void @llvm.lifetime.end.p0(i64 24, ptr %17) #24
  call void @llvm.lifetime.end.p0(i64 8, ptr %16) #24
  %60 = load ptr, ptr %8, align 8
  ret ptr %60
}